Certificate:
    Data:
        Version: 3 (0x2)
        Serial Number: 4096 (0x1000)
    Signature Algorithm: sha256WithRSAEncryption
        Issuer: C=CN, ST=Hubei, L=Wuhan, O=HUST, OU=CSE, CN=gypVPN.com/emailAddress=CA@gyp.com
        Validity
            Not Before: May 17 12:54:14 2022 GMT
            Not After : May 17 12:54:14 2023 GMT
        Subject: C=CN, ST=Hubei, O=HUST, OU=CSE, CN=gyp.com/emailAddress=Server@gyp.com
        Subject Public Key Info:
            Public Key Algorithm: rsaEncryption
                Public-Key: (1024 bit)
                Modulus:
                    00:d2:a9:ac:5d:5a:62:66:1e:2f:85:82:6d:84:a8:
                    c7:31:c1:c4:4a:37:7e:d9:b6:70:41:11:d7:6e:b6:
                    7b:a9:a1:da:8d:81:37:19:c4:f6:5a:b7:12:00:3d:
                    85:64:f4:18:23:f5:b1:f8:ab:94:e0:7a:17:33:5d:
                    af:4d:4d:ff:db:76:54:8b:d7:2b:c1:d2:fa:6a:36:
                    4b:d5:91:df:11:d9:a6:20:65:d4:05:08:2e:1c:9b:
                    08:8b:ab:b2:cc:c2:12:89:28:6e:3f:4f:d7:e5:e6:
                    b7:fb:26:f1:22:36:c8:72:f9:38:4a:24:7a:ae:22:
                    43:34:35:6a:40:dc:a9:94:07
                Exponent: 65537 (0x10001)
        X509v3 extensions:
            X509v3 Basic Constraints: 
                CA:FALSE
            Netscape Comment: 
                OpenSSL Generated Certificate
            X509v3 Subject Key Identifier: 
                EC:F7:86:73:FB:E1:2C:8C:E1:4E:C3:0C:07:68:6E:51:BC:C0:D4:3B
            X509v3 Authority Key Identifier: 
                keyid:13:98:5F:8D:DA:DB:D9:7F:5D:FB:EB:77:2A:39:83:DD:47:58:D2:C5

    Signature Algorithm: sha256WithRSAEncryption
         96:32:b3:23:e2:ab:1d:f2:94:ef:86:98:04:89:4d:38:ff:d9:
         6e:e4:2d:c5:93:59:7d:8c:99:ce:82:6e:b7:b0:a8:25:7a:32:
         cb:3e:1f:c1:f3:f0:0e:22:3c:6e:9f:6e:8c:31:b3:e4:6e:fa:
         41:cc:f7:51:6f:82:14:57:3b:e2:1c:c0:58:08:2c:f5:3f:bb:
         a2:62:7e:aa:ea:b8:86:b1:ac:30:0b:ac:85:36:63:7e:af:73:
         10:1e:ae:6a:b5:60:80:b4:a0:04:6f:92:46:47:55:14:08:85:
         ce:de:d5:64:a8:27:83:fe:c6:3d:4c:e2:3d:0a:9b:e1:b4:2b:
         2b:a9:4c:1a:28:a7:a8:92:45:7e:34:cb:27:1f:f1:2d:e5:6c:
         bb:da:bd:6c:c4:68:e5:d2:03:91:60:3c:2f:51:ff:a5:23:d3:
         26:7f:83:48:9f:5d:6a:2c:34:b7:fa:f7:d8:11:87:7e:b7:e4:
         4b:10:8f:6f:2b:3a:9f:9d:6c:7d:d6:e6:e5:72:d0:cc:c7:0d:
         44:97:df:24:6c:e4:ec:20:56:6b:1c:e7:0f:43:e2:90:45:e9:
         2e:48:d9:d4:36:ed:71:47:c5:24:8a:c0:f3:a7:4a:34:6c:0d:
         f2:46:23:4a:d6:a4:27:b4:69:d7:aa:d2:01:a3:7f:80:39:56:
         50:ee:05:4d
-----BEGIN CERTIFICATE-----
MIIDWDCCAkCgAwIBAgICEAAwDQYJKoZIhvcNAQELBQAwejELMAkGA1UEBhMCQ04x
DjAMBgNVBAgMBUh1YmVpMQ4wDAYDVQQHDAVXdWhhbjENMAsGA1UECgwESFVTVDEM
MAoGA1UECwwDQ1NFMRMwEQYDVQQDDApneXBWUE4uY29tMRkwFwYJKoZIhvcNAQkB
FgpDQUBneXAuY29tMB4XDTIyMDUxNzEyNTQxNFoXDTIzMDUxNzEyNTQxNFowazEL
MAkGA1UEBhMCQ04xDjAMBgNVBAgMBUh1YmVpMQ0wCwYDVQQKDARIVVNUMQwwCgYD
VQQLDANDU0UxEDAOBgNVBAMMB2d5cC5jb20xHTAbBgkqhkiG9w0BCQEWDlNlcnZl
ckBneXAuY29tMIGfMA0GCSqGSIb3DQEBAQUAA4GNADCBiQKBgQDSqaxdWmJmHi+F
gm2EqMcxwcRKN37ZtnBBEddutnupodqNgTcZxPZatxIAPYVk9Bgj9bH4q5Tgehcz
Xa9NTf/bdlSL1yvB0vpqNkvVkd8R2aYgZdQFCC4cmwiLq7LMwhKJKG4/T9fl5rf7
JvEiNshy+ThKJHquIkM0NWpA3KmUBwIDAQABo3sweTAJBgNVHRMEAjAAMCwGCWCG
SAGG+EIBDQQfFh1PcGVuU1NMIEdlbmVyYXRlZCBDZXJ0aWZpY2F0ZTAdBgNVHQ4E
FgQU7PeGc/vhLIzhTsMMB2huUbzA1DswHwYDVR0jBBgwFoAUE5hfjdrb2X9d++t3
KjmD3UdY0sUwDQYJKoZIhvcNAQELBQADggEBAJYysyPiqx3ylO+GmASJTTj/2W7k
LcWTWX2Mmc6CbrewqCV6Mss+H8Hz8A4iPG6fbowxs+Ru+kHM91FvghRXO+IcwFgI
LPU/u6JifqrquIaxrDALrIU2Y36vcxAermq1YIC0oARvkkZHVRQIhc7e1WSoJ4P+
xj1M4j0Km+G0KyupTBoop6iSRX40yycf8S3lbLvavWzEaOXSA5FgPC9R/6Uj0yZ/
g0ifXWosNLf699gRh3635EsQj28rOp+dbH3W5uVy0MzHDUSX3yRs5OwgVmsc5w9D
4pBF6S5I2dQ27XFHxSSKwPOnSjRsDfJGI0rWpCe0adeq0gGjf4A5VlDuBU0=
-----END CERTIFICATE-----
